target datalayout = "e-m:e-p270:32:32-p271:32:32-p272:64:64-i64:64-i128:128-f80:128-n8:16:32:64-S128"
target triple = "x86_64-pc-linux-gnu"

%struct._zend_array = type { %struct._zend_refcounted_h, %union.anon.1, i32, %union.anon.2, i32, i32, i32, i32, i64, ptr }
%struct._zend_refcounted_h = type { i32, %union.anon.0 }
%union.anon.0 = type { i32 }
%union.anon.1 = type { i32 }
%union.anon.2 = type { ptr }
%struct._zend_op_array = type { i8, [3 x i8], i32, ptr, ptr, ptr, i32, i32, ptr, ptr, ptr, ptr, i32, ptr, i32, i32, i32, ptr, ptr, ptr, ptr, ptr, i32, i32, ptr, ptr, ptr, i32, i32, i32, i32, ptr, ptr, [6 x ptr] }
%struct.zend_type = type { ptr, i32 }
%struct._zend_class_entry = type { i8, ptr, %union.anon, i32, i32, i32, i32, ptr, ptr, ptr, %struct._zend_array, %struct._zend_array, %struct._zend_array, ptr, ptr, ptr, ptr, ptr, ptr, ptr, ptr, ptr, ptr, ptr, ptr, ptr, ptr, ptr, ptr, ptr, ptr, ptr, %union.anon.3, ptr, ptr, ptr, ptr, i32, i32, i32, i32, %union.anon.4, ptr, ptr, ptr, ptr, i32, ptr, ptr, %union.anon.5 }
%union.anon = type { ptr }
%union.anon.3 = type { ptr }
%union.anon.4 = type { ptr }
%union.anon.5 = type { %struct.anon.6 }
%struct.anon.6 = type { ptr, i32, i32 }
%struct._zend_property_info = type { i32, i32, ptr, ptr, ptr, ptr, %struct.zend_type, ptr, ptr }
%struct._zend_arg_info = type { ptr, %struct.zend_type, ptr }

; Function Attrs: noreturn nounwind uwtable
define dso_local void @zend_hooked_property_variance_error(ptr noundef %0) #9 {
  %2 = alloca ptr, align 8
  %3 = alloca ptr, align 8
  store ptr %0, ptr %2, align 8, !tbaa !52
  call void @llvm.lifetime.start.p0(i64 8, ptr %3) #19
  %4 = load ptr, ptr %2, align 8, !tbaa !52
  %5 = getelementptr inbounds nuw %struct._zend_property_info, ptr %4, i32 0, i32 8
  %6 = load ptr, ptr %5, align 8, !tbaa !69
  %7 = getelementptr inbounds ptr, ptr %6, i64 1
  %8 = load ptr, ptr %7, align 8, !tbaa !73
  %9 = getelementptr inbounds nuw %struct._zend_op_array, ptr %8, i32 0, i32 8
  %10 = load ptr, ptr %9, align 8, !tbaa !46
  %11 = getelementptr inbounds %struct._zend_arg_info, ptr %10, i64 0
  %12 = getelementptr inbounds nuw %struct._zend_arg_info, ptr %11, i32 0, i32 0
  %13 = load ptr, ptr %12, align 8, !tbaa !74
  store ptr %13, ptr %3, align 8, !tbaa !19
  %14 = load ptr, ptr %3, align 8, !tbaa !19
  %15 = load ptr, ptr %2, align 8, !tbaa !52
  %16 = getelementptr inbounds nuw %struct._zend_property_info, ptr %15, i32 0, i32 5
  %17 = load ptr, ptr %16, align 8, !tbaa !54
  %18 = getelementptr inbounds nuw %struct._zend_class_entry, ptr %17, i32 0, i32 1
  %19 = load ptr, ptr %18, align 8, !tbaa !70
  %20 = load ptr, ptr %2, align 8, !tbaa !52
  %21 = getelementptr inbounds nuw %struct._zend_property_info, ptr %20, i32 0, i32 2
  %22 = load ptr, ptr %21, align 8, !tbaa !76
  call void @zend_hooked_property_variance_error_ex(ptr noundef %14, ptr noundef %19, ptr noundef %22) #21
  unreachable
}