; Function Attrs: noreturn nounwind uwtable
define dso_local void @zend_hooked_property_variance_error(ptr noundef readonly captures(none) %0) local_unnamed_addr #8 {
  %2 = getelementptr inbounds nuw i8, ptr %0, i64 64
  %3 = load ptr, ptr %2, align 8, !tbaa !105
  %4 = getelementptr inbounds nuw i8, ptr %3, i64 8
  %5 = load ptr, ptr %4, align 8, !tbaa !108
  %6 = getelementptr inbounds nuw i8, ptr %5, i64 40
  %7 = load ptr, ptr %6, align 8, !tbaa !21
  %8 = load ptr, ptr %7, align 8, !tbaa !110
  %9 = getelementptr inbounds nuw i8, ptr %0, i64 32
  %10 = load ptr, ptr %9, align 8, !tbaa !98
  %11 = getelementptr inbounds nuw i8, ptr %10, i64 8
  %12 = load ptr, ptr %11, align 8, !tbaa !37
  %13 = getelementptr inbounds nuw i8, ptr %0, i64 8
  %14 = load ptr, ptr %13, align 8, !tbaa !112
  tail call void @zend_hooked_property_variance_error_ex(ptr noundef %8, ptr noundef %12, ptr noundef %14) #20
  unreachable
}